; Function Attrs: null_pointer_is_valid sspstrong uwtable
define hidden void @rtpstream_reset_cb(ptr noundef %0) #1 {
  %2 = load ptr, ptr %0, align 8
  %.not = icmp eq ptr %2, null
  br i1 %.not, label %4, label %3

3:                                                ; preds = %1
  tail call void %2(ptr noundef %0)
  br label %4

4:                                                ; preds = %3, %1
  tail call void @rtpstream_reset(ptr noundef %0)
  ret void
}